; ModuleID = 'source-C-CXX/60/1114.cpp'
source_filename = "source-C-CXX/60/1114.cpp"
target datalayout = "e-m:e-p270:32:32-p271:32:32-p272:64:64-i64:64-f80:128-n8:16:32:64-S128"
target triple = "x86_64-pc-linux-gnu"

%"class.std::ios_base::Init" = type { i8 }
%"class.std::basic_istream" = type { i32 (...)**, i64, %"class.std::basic_ios" }
%"class.std::basic_ios" = type { %"class.std::ios_base", %"class.std::basic_ostream"*, i8, i8, %"class.std::basic_streambuf"*, %"class.std::ctype"*, %"class.std::num_put"*, %"class.std::num_get"* }
%"class.std::ios_base" = type { i32 (...)**, i64, i64, i32, i32, i32, %"struct.std::ios_base::_Callback_list"*, %"struct.std::ios_base::_Words", [8 x %"struct.std::ios_base::_Words"], i32, %"struct.std::ios_base::_Words"*, %"class.std::locale" }
%"struct.std::ios_base::_Callback_list" = type { %"struct.std::ios_base::_Callback_list"*, void (i32, %"class.std::ios_base"*, i32)*, i32, i32 }
%"struct.std::ios_base::_Words" = type { i8*, i64 }
%"class.std::locale" = type { %"class.std::locale::_Impl"* }
%"class.std::locale::_Impl" = type { i32, %"class.std::locale::facet"**, i64, %"class.std::locale::facet"**, i8** }
%"class.std::locale::facet" = type <{ i32 (...)**, i32, [4 x i8] }>
%"class.std::basic_ostream" = type { i32 (...)**, %"class.std::basic_ios" }
%"class.std::basic_streambuf" = type { i32 (...)**, i8*, i8*, i8*, i8*, i8*, i8*, %"class.std::locale" }
%"class.std::ctype" = type <{ %"class.std::locale::facet.base", [4 x i8], %struct.__locale_struct*, i8, [7 x i8], i32*, i32*, i16*, i8, [256 x i8], [256 x i8], i8, [6 x i8] }>
%"class.std::locale::facet.base" = type <{ i32 (...)**, i32 }>
%struct.__locale_struct = type { [13 x %struct.__locale_data*], i16*, i32*, i32*, [13 x i8*] }
%struct.__locale_data = type opaque
%"class.std::num_put" = type { %"class.std::locale::facet.base", [4 x i8] }
%"class.std::num_get" = type { %"class.std::locale::facet.base", [4 x i8] }

@_ZStL8__ioinit = internal global %"class.std::ios_base::Init" zeroinitializer, align 1
@__dso_handle = external hidden global i8
@_ZSt3cin = external global %"class.std::basic_istream", align 8
@_ZSt4cout = external global %"class.std::basic_ostream", align 8
@llvm.global_ctors = appending global [1 x { i32, void ()*, i8* }] [{ i32, void ()*, i8* } { i32 65535, void ()* @_GLOBAL__sub_I_1114.cpp, i8* null }]

declare void @_ZNSt8ios_base4InitC1Ev(%"class.std::ios_base::Init"* nonnull align 1 dereferenceable(1)) unnamed_addr #0

; Function Attrs: nounwind
declare void @_ZNSt8ios_base4InitD1Ev(%"class.std::ios_base::Init"* nonnull align 1 dereferenceable(1)) unnamed_addr #1

; Function Attrs: nofree nounwind
declare i32 @__cxa_atexit(void (i8*)*, i8*, i8*) local_unnamed_addr #2

; Function Attrs: mustprogress nofree nosync nounwind sspstrong uwtable
define dso_local i32 @_Z1fPii(i32* %0, i32 %1) local_unnamed_addr #3 {
  switch i32 %1, label %10 [
    i32 0, label %3
    i32 1, label %5
  ]

3:                                                ; preds = %2
  %4 = load i32, i32* %0, align 4, !tbaa !5
  br label %8

5:                                                ; preds = %2
  %6 = getelementptr inbounds i32, i32* %0, i64 1
  %7 = load i32, i32* %6, align 4, !tbaa !5
  br label %8

8:                                                ; preds = %3, %5, %10
  %9 = phi i32 [ %15, %10 ], [ %4, %3 ], [ %7, %5 ]
  ret i32 %9

10:                                               ; preds = %2
  %11 = add nsw i32 %1, -1
  %12 = tail call i32 @_Z1fPii(i32* %0, i32 %11)
  %13 = add nsw i32 %1, -2
  %14 = tail call i32 @_Z1fPii(i32* %0, i32 %13)
  %15 = add nsw i32 %14, %12
  %16 = sext i32 %1 to i64
  %17 = getelementptr inbounds i32, i32* %0, i64 %16
  store i32 %15, i32* %17, align 4, !tbaa !5
  br label %8
}

; Function Attrs: mustprogress norecurse sspstrong uwtable
define dso_local i32 @main() local_unnamed_addr #4 {
  %1 = alloca [22 x i32], align 16
  %2 = alloca i32, align 4
  %3 = alloca i32, align 4
  %4 = bitcast [22 x i32]* %1 to i8*
  call void @llvm.lifetime.start.p0i8(i64 88, i8* nonnull %4) #9
  call void @llvm.memset.p0i8.i64(i8* noundef nonnull align 16 dereferenceable(88) %4, i8 0, i64 88, i1 false)
  %5 = getelementptr inbounds [22 x i32], [22 x i32]* %1, i64 0, i64 0
  store i32 1, i32* %5, align 16
  %6 = getelementptr inbounds [22 x i32], [22 x i32]* %1, i64 0, i64 1
  store i32 1, i32* %6, align 4
  %7 = bitcast i32* %2 to i8*
  call void @llvm.lifetime.start.p0i8(i64 4, i8* nonnull %7) #9
  %8 = bitcast i32* %3 to i8*
  call void @llvm.lifetime.start.p0i8(i64 4, i8* nonnull %8) #9
  %9 = call nonnull align 8 dereferenceable(16) %"class.std::basic_istream"* @_ZNSirsERi(%"class.std::basic_istream"* nonnull align 8 dereferenceable(16) @_ZSt3cin, i32* nonnull align 4 dereferenceable(4) %3)
  %10 = load i32, i32* %3, align 4, !tbaa !5
  %11 = icmp sgt i32 %10, 0
  br i1 %11, label %12, label %50

12:                                               ; preds = %0, %43
  %13 = call nonnull align 8 dereferenceable(16) %"class.std::basic_istream"* @_ZNSirsERi(%"class.std::basic_istream"* nonnull align 8 dereferenceable(16) @_ZSt3cin, i32* nonnull align 4 dereferenceable(4) %2)
  %14 = load i32, i32* %2, align 4, !tbaa !5
  %15 = add nsw i32 %14, -1
  %16 = call i32 @_Z1fPii(i32* nonnull %5, i32 %15)
  %17 = call nonnull align 8 dereferenceable(8) %"class.std::basic_ostream"* @_ZNSolsEi(%"class.std::basic_ostream"* nonnull align 8 dereferenceable(8) @_ZSt4cout, i32 %16)
  %18 = bitcast %"class.std::basic_ostream"* %17 to i8**
  %19 = load i8*, i8** %18, align 8, !tbaa !9
  %20 = getelementptr i8, i8* %19, i64 -24
  %21 = bitcast i8* %20 to i64*
  %22 = load i64, i64* %21, align 8
  %23 = bitcast %"class.std::basic_ostream"* %17 to i8*
  %24 = add nsw i64 %22, 240
  %25 = getelementptr inbounds i8, i8* %23, i64 %24
  %26 = bitcast i8* %25 to %"class.std::ctype"**
  %27 = load %"class.std::ctype"*, %"class.std::ctype"** %26, align 8, !tbaa !11
  %28 = icmp eq %"class.std::ctype"* %27, null
  br i1 %28, label %29, label %30

29:                                               ; preds = %12
  call void @_ZSt16__throw_bad_castv() #10
  unreachable

30:                                               ; preds = %12
  %31 = getelementptr inbounds %"class.std::ctype", %"class.std::ctype"* %27, i64 0, i32 8
  %32 = load i8, i8* %31, align 8, !tbaa !15
  %33 = icmp eq i8 %32, 0
  br i1 %33, label %37, label %34

34:                                               ; preds = %30
  %35 = getelementptr inbounds %"class.std::ctype", %"class.std::ctype"* %27, i64 0, i32 9, i64 10
  %36 = load i8, i8* %35, align 1, !tbaa !17
  br label %43

37:                                               ; preds = %30
  call void @_ZNKSt5ctypeIcE13_M_widen_initEv(%"class.std::ctype"* nonnull align 8 dereferenceable(570) %27)
  %38 = bitcast %"class.std::ctype"* %27 to i8 (%"class.std::ctype"*, i8)***
  %39 = load i8 (%"class.std::ctype"*, i8)**, i8 (%"class.std::ctype"*, i8)*** %38, align 8, !tbaa !9
  %40 = getelementptr inbounds i8 (%"class.std::ctype"*, i8)*, i8 (%"class.std::ctype"*, i8)** %39, i64 6
  %41 = load i8 (%"class.std::ctype"*, i8)*, i8 (%"class.std::ctype"*, i8)** %40, align 8
  %42 = call signext i8 %41(%"class.std::ctype"* nonnull align 8 dereferenceable(570) %27, i8 signext 10)
  br label %43

43:                                               ; preds = %34, %37
  %44 = phi i8 [ %36, %34 ], [ %42, %37 ]
  %45 = call nonnull align 8 dereferenceable(8) %"class.std::basic_ostream"* @_ZNSo3putEc(%"class.std::basic_ostream"* nonnull align 8 dereferenceable(8) %17, i8 signext %44)
  %46 = call nonnull align 8 dereferenceable(8) %"class.std::basic_ostream"* @_ZNSo5flushEv(%"class.std::basic_ostream"* nonnull align 8 dereferenceable(8) %45)
  %47 = load i32, i32* %3, align 4, !tbaa !5
  %48 = add nsw i32 %47, -1
  store i32 %48, i32* %3, align 4, !tbaa !5
  %49 = icmp sgt i32 %47, 1
  br i1 %49, label %12, label %50, !llvm.loop !18

50:                                               ; preds = %43, %0
  call void @llvm.lifetime.end.p0i8(i64 4, i8* nonnull %8) #9
  call void @llvm.lifetime.end.p0i8(i64 4, i8* nonnull %7) #9
  call void @llvm.lifetime.end.p0i8(i64 88, i8* nonnull %4) #9
  ret i32 0
}

; Function Attrs: argmemonly mustprogress nofree nosync nounwind willreturn
declare void @llvm.lifetime.start.p0i8(i64 immarg, i8* nocapture) #5

; Function Attrs: argmemonly mustprogress nofree nounwind willreturn writeonly
declare void @llvm.memset.p0i8.i64(i8* nocapture writeonly, i8, i64, i1 immarg) #6

declare nonnull align 8 dereferenceable(16) %"class.std::basic_istream"* @_ZNSirsERi(%"class.std::basic_istream"* nonnull align 8 dereferenceable(16), i32* nonnull align 4 dereferenceable(4)) local_unnamed_addr #0

declare nonnull align 8 dereferenceable(8) %"class.std::basic_ostream"* @_ZNSolsEi(%"class.std::basic_ostream"* nonnull align 8 dereferenceable(8), i32) local_unnamed_addr #0

; Function Attrs: argmemonly mustprogress nofree nosync nounwind willreturn
declare void @llvm.lifetime.end.p0i8(i64 immarg, i8* nocapture) #5

declare nonnull align 8 dereferenceable(8) %"class.std::basic_ostream"* @_ZNSo3putEc(%"class.std::basic_ostream"* nonnull align 8 dereferenceable(8), i8 signext) local_unnamed_addr #0

declare nonnull align 8 dereferenceable(8) %"class.std::basic_ostream"* @_ZNSo5flushEv(%"class.std::basic_ostream"* nonnull align 8 dereferenceable(8)) local_unnamed_addr #0

; Function Attrs: noreturn
declare void @_ZSt16__throw_bad_castv() local_unnamed_addr #7

declare void @_ZNKSt5ctypeIcE13_M_widen_initEv(%"class.std::ctype"* nonnull align 8 dereferenceable(570)) local_unnamed_addr #0

; Function Attrs: sspstrong uwtable
define internal void @_GLOBAL__sub_I_1114.cpp() #8 section ".text.startup" {
  tail call void @_ZNSt8ios_base4InitC1Ev(%"class.std::ios_base::Init"* nonnull align 1 dereferenceable(1) @_ZStL8__ioinit)
  %1 = tail call i32 @__cxa_atexit(void (i8*)* bitcast (void (%"class.std::ios_base::Init"*)* @_ZNSt8ios_base4InitD1Ev to void (i8*)*), i8* getelementptr inbounds (%"class.std::ios_base::Init", %"class.std::ios_base::Init"* @_ZStL8__ioinit, i64 0, i32 0), i8* nonnull @__dso_handle) #9
  ret void
}


!llvm.module.flags = !{!0, !1, !2, !3}
!llvm.ident = !{!4}

!0 = !{i32 1, !"wchar_size", i32 4}
!1 = !{i32 7, !"PIC Level", i32 2}
!2 = !{i32 7, !"PIE Level", i32 2}
!3 = !{i32 7, !"uwtable", i32 1}
!4 = !{!"clang version 13.0.0"}
!5 = !{!6, !6, i64 0}
!6 = !{!"int", !7, i64 0}
!7 = !{!"omnipotent char", !8, i64 0}
!8 = !{!"Simple C++ TBAA"}
!9 = !{!10, !10, i64 0}
!10 = !{!"vtable pointer", !8, i64 0}
!11 = !{!12, !13, i64 240}
!12 = !{!"_ZTSSt9basic_iosIcSt11char_traitsIcEE", !13, i64 216, !7, i64 224, !14, i64 225, !13, i64 232, !13, i64 240, !13, i64 248, !13, i64 256}
!13 = !{!"any pointer", !7, i64 0}
!14 = !{!"bool", !7, i64 0}
!15 = !{!16, !7, i64 56}
!16 = !{!"_ZTSSt5ctypeIcE", !13, i64 16, !14, i64 24, !13, i64 32, !13, i64 40, !13, i64 48, !7, i64 56, !7, i64 57, !7, i64 313, !7, i64 569}
!17 = !{!7, !7, i64 0}
!18 = distinct !{!18, !19}
!19 = !{!"llvm.loop.mustprogress"}
